target datalayout = "e-m:e-p270:32:32-p271:32:32-p272:64:64-i64:64-i128:128-f80:128-n8:16:32:64-S128"
target triple = "x86_64-pc-linux-gnu"

@proto_register_tiff.ett = internal global [3 x ptr] [ptr @ett_tiff, ptr @ett_ifd, ptr @ett_t6], align 16
@.str.109 = private unnamed_addr constant [25 x i8] c"Tagged Image File Format\00", align 1
@.str.110 = private unnamed_addr constant [11 x i8] c"TIFF image\00", align 1
@.str.111 = private unnamed_addr constant [5 x i8] c"tiff\00", align 1
@proto_tiff = internal global i32 0, align 4

; Function Attrs: null_pointer_is_valid sspstrong uwtable
define hidden void @proto_register_tiff() #0 {
  %1 = alloca ptr, align 8
  %2 = call i32 @proto_register_protocol(ptr noundef @.str.109, ptr noundef @.str.110, ptr noundef @.str.111)
  store i32 %2, ptr @proto_tiff, align 4
  %3 = load i32, ptr @proto_tiff, align 4
  %4 = call ptr @register_dissector(ptr noundef @.str.111, ptr noundef @dissect_tiff, i32 noundef %3)
  %5 = load i32, ptr @proto_tiff, align 4
  call void @proto_register_field_array(i32 noundef %5, ptr noundef @proto_register_tiff.hf, i32 noundef 52)
  call void @proto_register_subtree_array(ptr noundef @proto_register_tiff.ett, i32 noundef 3)
  call void @llvm.lifetime.start.p0(i64 8, ptr %1) #5
  %6 = load i32, ptr @proto_tiff, align 4
  %7 = call ptr @expert_register_protocol(i32 noundef %6)
  store ptr %7, ptr %1, align 8
  %8 = load ptr, ptr %1, align 8
  call void @expert_register_field_array(ptr noundef %8, ptr noundef @proto_register_tiff.ei, i32 noundef 3)
  call void @llvm.lifetime.end.p0(i64 8, ptr %1) #5
  ret void
}