; Function Attrs: null_pointer_is_valid sspstrong uwtable
define hidden void @proto_register_tiff() local_unnamed_addr #0 {
  %1 = tail call i32 @proto_register_protocol(ptr noundef nonnull @.str.109, ptr noundef nonnull @.str.110, ptr noundef nonnull @.str.111)
  store i32 %1, ptr @proto_tiff, align 4
  %2 = tail call ptr @register_dissector(ptr noundef nonnull @.str.111, ptr noundef nonnull @dissect_tiff, i32 noundef %1)
  %3 = load i32, ptr @proto_tiff, align 4
  tail call void @proto_register_field_array(i32 noundef %3, ptr noundef nonnull @proto_register_tiff.hf, i32 noundef 52)
  tail call void @proto_register_subtree_array(ptr noundef nonnull @proto_register_tiff.ett, i32 noundef 3)
  %4 = load i32, ptr @proto_tiff, align 4
  %5 = tail call ptr @expert_register_protocol(i32 noundef %4)
  tail call void @expert_register_field_array(ptr noundef %5, ptr noundef nonnull @proto_register_tiff.ei, i32 noundef 3)
  ret void
}